(dp1
S'OriginalConfig'
p2
ccopy_reg
_reconstructor
p3
(cWMCore.Configuration
Configuration
p4
c__builtin__
object
p5
NtRp6
(dp7
S'Site'
p8
g3
(cWMCore.Configuration
ConfigSection
p9
g5
NtRp10
(dp11
S'_internal_skipChecks'
p12
I00
sS'_internal_documentation'
p13
S''
sS'_internal_settings'
p14
c__builtin__
set
p15
((lp16
S'storageSite'
p17
atRp18
sS'_internal_name'
p19
g8
sS'_internal_docstrings'
p20
(dp21
sS'_internal_children'
p22
g15
((ltRp23
sg17
S'T2_ES_IFCA'
p24
sS'_internal_parent_ref'
p25
NsbsS'_internal_sections'
p26
(lp27
S'General'
p28
aS'JobType'
p29
aS'Data'
p30
ag8
asg28
g3
(g9
g5
NtRp31
(dp32
g12
I00
sg13
S''
sg14
g15
((lp33
S'workArea'
p34
aS'requestName'
p35
atRp36
sg19
g28
sg20
(dp37
sg22
g15
((ltRp38
sg35
S'DMscalar_Dilepton_top_tWChan_Mchi1_Mphi1000_RunIIFall17_GENSIM_PrivateFullProd'
p39
sg25
Nsg34
S'crab_output'
p40
sbsS'_internal_webapps'
p41
(lp42
sS'_internal_components'
p43
(lp44
sg30
g3
(g9
g5
NtRp45
(dp46
S'outputDatasetTag'
p47
g39
sg12
I00
sS'unitsPerJob'
p48
I2000
sg13
S''
sg14
g15
((lp49
g47
aS'publication'
p50
ag48
aS'splitting'
p51
aS'outLFNDirBase'
p52
aS'outputPrimaryDataset'
p53
aS'totalUnits'
p54
atRp55
sg52
S'/store/user/cprieels/'
p56
sg19
g30
sg51
S'EventBased'
p57
sg20
(dp58
sg22
g15
((ltRp59
sg50
I01
sg53
S'CRAB_PrivateMC'
p60
sg25
Nsg54
I400000
sbsg29
g3
(g9
g5
NtRp61
(dp62
g12
I00
sg13
S''
sg14
g15
((lp63
S'psetName'
p64
aS'pluginName'
p65
aS'inputFiles'
p66
atRp67
sg19
g29
sg20
(dp68
sg65
S'PrivateMC'
p69
sg22
g15
((ltRp70
sg64
S'gensim2017.py'
p71
sg25
Nsg66
(lp72
S'/afs/cern.ch/work/d/dpinna/public/forCedric/DMScalar_top_tWChan_Mchi1_Mphi1000_slc6_amd64_gcc630_CMSSW_9_3_16_tarball.tar.xz'
p73
asbsbsS'voGroup'
p74
S''
sS'Server'
p75
S'cmsweb.cern.ch'
p76
sS'instance'
p77
S'prod'
p78
sS'RequestName'
p79
V200810_114712:cprieels_crab_DMscalar_Dilepton_top_tWChan_Mchi1_Mphi1000_RunIIFall17_GENSIM_PrivateFullProd
p80
sS'voRole'
p81
S'NULL'
p82
sS'Port'
p83
S''
s.